target datalayout = "e-m:e-p270:32:32-p271:32:32-p272:64:64-i64:64-i128:128-f80:128-n8:16:32:64-S128"
target triple = "x86_64-pc-linux-gnu"

@_ZZ18ImTextCharFromUtf8PjPKcS1_E7lengths = internal constant [32 x i8] c"\01\01\01\01\01\01\01\01\01\01\01\01\01\01\01\01\00\00\00\00\00\00\00\00\02\02\02\02\03\03\04\00", align 16
@_ZZ18ImTextCharFromUtf8PjPKcS1_E5masks = internal constant [5 x i32] [i32 0, i32 127, i32 31, i32 15, i32 7], align 16
@_ZZ18ImTextCharFromUtf8PjPKcS1_E4mins = internal constant [5 x i32] [i32 4194304, i32 0, i32 128, i32 2048, i32 65536], align 16
@_ZZ18ImTextCharFromUtf8PjPKcS1_E6shiftc = internal constant [5 x i32] [i32 0, i32 18, i32 12, i32 6, i32 0], align 16
@_ZZ18ImTextCharFromUtf8PjPKcS1_E6shifte = internal constant [5 x i32] [i32 0, i32 6, i32 4, i32 2, i32 0], align 16

; Function Attrs: inlinehint mustprogress nounwind uwtable
define internal noundef i32 @_ZL5ImMinIiET_S0_S0_(i32 noundef %0, i32 noundef %1) #7 {
  %3 = alloca i32, align 4
  %4 = alloca i32, align 4
  store i32 %0, ptr %3, align 4, !tbaa !117
  store i32 %1, ptr %4, align 4, !tbaa !117
  %5 = load i32, ptr %3, align 4, !tbaa !117
  %6 = load i32, ptr %4, align 4, !tbaa !117
  %7 = icmp slt i32 %5, %6
  br i1 %7, label %8, label %10

8:                                                ; preds = %2
  %9 = load i32, ptr %3, align 4, !tbaa !117
  br label %12

10:                                               ; preds = %2
  %11 = load i32, ptr %4, align 4, !tbaa !117
  br label %12

12:                                               ; preds = %10, %8
  %13 = phi i32 [ %9, %8 ], [ %11, %10 ]
  ret i32 %13
}

; Function Attrs: mustprogress uwtable
define dso_local noundef i32 @_Z18ImTextCharFromUtf8PjPKcS1_(ptr noundef %0, ptr noundef %1, ptr noundef %2) #0 {
  %4 = alloca ptr, align 8
  %5 = alloca ptr, align 8
  %6 = alloca ptr, align 8
  %7 = alloca i32, align 4
  %8 = alloca i32, align 4
  %9 = alloca [4 x i8], align 1
  %10 = alloca i32, align 4
  store ptr %0, ptr %4, align 8, !tbaa !256
  store ptr %1, ptr %5, align 8, !tbaa !254
  store ptr %2, ptr %6, align 8, !tbaa !254
  call void @llvm.lifetime.start.p0(i64 4, ptr %7) #16
  %11 = load ptr, ptr %5, align 8, !tbaa !254
  %12 = load i8, ptr %11, align 1, !tbaa !245
  %13 = zext i8 %12 to i32
  %14 = ashr i32 %13, 3
  %15 = sext i32 %14 to i64
  %16 = getelementptr inbounds [32 x i8], ptr @_ZZ18ImTextCharFromUtf8PjPKcS1_E7lengths, i64 0, i64 %15
  %17 = load i8, ptr %16, align 1, !tbaa !245
  %18 = sext i8 %17 to i32
  store i32 %18, ptr %7, align 4, !tbaa !117
  call void @llvm.lifetime.start.p0(i64 4, ptr %8) #16
  %19 = load i32, ptr %7, align 4, !tbaa !117
  %20 = load i32, ptr %7, align 4, !tbaa !117
  %21 = icmp ne i32 %20, 0
  %22 = select i1 %21, i32 0, i32 1
  %23 = add nsw i32 %19, %22
  store i32 %23, ptr %8, align 4, !tbaa !117
  %24 = load ptr, ptr %6, align 8, !tbaa !254
  %25 = icmp eq ptr %24, null
  br i1 %25, label %26, label %31

26:                                               ; preds = %3
  %27 = load ptr, ptr %5, align 8, !tbaa !254
  %28 = load i32, ptr %8, align 4, !tbaa !117
  %29 = sext i32 %28 to i64
  %30 = getelementptr inbounds i8, ptr %27, i64 %29
  store ptr %30, ptr %6, align 8, !tbaa !254
  br label %31

31:                                               ; preds = %26, %3
  call void @llvm.lifetime.start.p0(i64 4, ptr %9) #16
  %32 = load ptr, ptr %5, align 8, !tbaa !254
  %33 = getelementptr inbounds i8, ptr %32, i64 0
  %34 = load ptr, ptr %6, align 8, !tbaa !254
  %35 = icmp ult ptr %33, %34
  br i1 %35, label %36, label %41

36:                                               ; preds = %31
  %37 = load ptr, ptr %5, align 8, !tbaa !254
  %38 = getelementptr inbounds i8, ptr %37, i64 0
  %39 = load i8, ptr %38, align 1, !tbaa !245
  %40 = sext i8 %39 to i32
  br label %42

41:                                               ; preds = %31
  br label %42

42:                                               ; preds = %41, %36
  %43 = phi i32 [ %40, %36 ], [ 0, %41 ]
  %44 = trunc i32 %43 to i8
  %45 = getelementptr inbounds [4 x i8], ptr %9, i64 0, i64 0
  store i8 %44, ptr %45, align 1, !tbaa !245
  %46 = load ptr, ptr %5, align 8, !tbaa !254
  %47 = getelementptr inbounds i8, ptr %46, i64 1
  %48 = load ptr, ptr %6, align 8, !tbaa !254
  %49 = icmp ult ptr %47, %48
  br i1 %49, label %50, label %55

50:                                               ; preds = %42
  %51 = load ptr, ptr %5, align 8, !tbaa !254
  %52 = getelementptr inbounds i8, ptr %51, i64 1
  %53 = load i8, ptr %52, align 1, !tbaa !245
  %54 = sext i8 %53 to i32
  br label %56

55:                                               ; preds = %42
  br label %56

56:                                               ; preds = %55, %50
  %57 = phi i32 [ %54, %50 ], [ 0, %55 ]
  %58 = trunc i32 %57 to i8
  %59 = getelementptr inbounds [4 x i8], ptr %9, i64 0, i64 1
  store i8 %58, ptr %59, align 1, !tbaa !245
  %60 = load ptr, ptr %5, align 8, !tbaa !254
  %61 = getelementptr inbounds i8, ptr %60, i64 2
  %62 = load ptr, ptr %6, align 8, !tbaa !254
  %63 = icmp ult ptr %61, %62
  br i1 %63, label %64, label %69

64:                                               ; preds = %56
  %65 = load ptr, ptr %5, align 8, !tbaa !254
  %66 = getelementptr inbounds i8, ptr %65, i64 2
  %67 = load i8, ptr %66, align 1, !tbaa !245
  %68 = sext i8 %67 to i32
  br label %70

69:                                               ; preds = %56
  br label %70

70:                                               ; preds = %69, %64
  %71 = phi i32 [ %68, %64 ], [ 0, %69 ]
  %72 = trunc i32 %71 to i8
  %73 = getelementptr inbounds [4 x i8], ptr %9, i64 0, i64 2
  store i8 %72, ptr %73, align 1, !tbaa !245
  %74 = load ptr, ptr %5, align 8, !tbaa !254
  %75 = getelementptr inbounds i8, ptr %74, i64 3
  %76 = load ptr, ptr %6, align 8, !tbaa !254
  %77 = icmp ult ptr %75, %76
  br i1 %77, label %78, label %83

78:                                               ; preds = %70
  %79 = load ptr, ptr %5, align 8, !tbaa !254
  %80 = getelementptr inbounds i8, ptr %79, i64 3
  %81 = load i8, ptr %80, align 1, !tbaa !245
  %82 = sext i8 %81 to i32
  br label %84

83:                                               ; preds = %70
  br label %84

84:                                               ; preds = %83, %78
  %85 = phi i32 [ %82, %78 ], [ 0, %83 ]
  %86 = trunc i32 %85 to i8
  %87 = getelementptr inbounds [4 x i8], ptr %9, i64 0, i64 3
  store i8 %86, ptr %87, align 1, !tbaa !245
  %88 = getelementptr inbounds [4 x i8], ptr %9, i64 0, i64 0
  %89 = load i8, ptr %88, align 1, !tbaa !245
  %90 = zext i8 %89 to i32
  %91 = load i32, ptr %7, align 4, !tbaa !117
  %92 = sext i32 %91 to i64
  %93 = getelementptr inbounds [5 x i32], ptr @_ZZ18ImTextCharFromUtf8PjPKcS1_E5masks, i64 0, i64 %92
  %94 = load i32, ptr %93, align 4, !tbaa !117
  %95 = and i32 %90, %94
  %96 = shl i32 %95, 18
  %97 = load ptr, ptr %4, align 8, !tbaa !256
  store i32 %96, ptr %97, align 4, !tbaa !117
  %98 = getelementptr inbounds [4 x i8], ptr %9, i64 0, i64 1
  %99 = load i8, ptr %98, align 1, !tbaa !245
  %100 = zext i8 %99 to i32
  %101 = and i32 %100, 63
  %102 = shl i32 %101, 12
  %103 = load ptr, ptr %4, align 8, !tbaa !256
  %104 = load i32, ptr %103, align 4, !tbaa !117
  %105 = or i32 %104, %102
  store i32 %105, ptr %103, align 4, !tbaa !117
  %106 = getelementptr inbounds [4 x i8], ptr %9, i64 0, i64 2
  %107 = load i8, ptr %106, align 1, !tbaa !245
  %108 = zext i8 %107 to i32
  %109 = and i32 %108, 63
  %110 = shl i32 %109, 6
  %111 = load ptr, ptr %4, align 8, !tbaa !256
  %112 = load i32, ptr %111, align 4, !tbaa !117
  %113 = or i32 %112, %110
  store i32 %113, ptr %111, align 4, !tbaa !117
  %114 = getelementptr inbounds [4 x i8], ptr %9, i64 0, i64 3
  %115 = load i8, ptr %114, align 1, !tbaa !245
  %116 = zext i8 %115 to i32
  %117 = and i32 %116, 63
  %118 = shl i32 %117, 0
  %119 = load ptr, ptr %4, align 8, !tbaa !256
  %120 = load i32, ptr %119, align 4, !tbaa !117
  %121 = or i32 %120, %118
  store i32 %121, ptr %119, align 4, !tbaa !117
  %122 = load i32, ptr %7, align 4, !tbaa !117
  %123 = sext i32 %122 to i64
  %124 = getelementptr inbounds [5 x i32], ptr @_ZZ18ImTextCharFromUtf8PjPKcS1_E6shiftc, i64 0, i64 %123
  %125 = load i32, ptr %124, align 4, !tbaa !117
  %126 = load ptr, ptr %4, align 8, !tbaa !256
  %127 = load i32, ptr %126, align 4, !tbaa !117
  %128 = lshr i32 %127, %125
  store i32 %128, ptr %126, align 4, !tbaa !117
  call void @llvm.lifetime.start.p0(i64 4, ptr %10) #16
  store i32 0, ptr %10, align 4, !tbaa !117
  %129 = load ptr, ptr %4, align 8, !tbaa !256
  %130 = load i32, ptr %129, align 4, !tbaa !117
  %131 = load i32, ptr %7, align 4, !tbaa !117
  %132 = sext i32 %131 to i64
  %133 = getelementptr inbounds [5 x i32], ptr @_ZZ18ImTextCharFromUtf8PjPKcS1_E4mins, i64 0, i64 %132
  %134 = load i32, ptr %133, align 4, !tbaa !117
  %135 = icmp ult i32 %130, %134
  %136 = zext i1 %135 to i32
  %137 = shl i32 %136, 6
  store i32 %137, ptr %10, align 4, !tbaa !117
  %138 = load ptr, ptr %4, align 8, !tbaa !256
  %139 = load i32, ptr %138, align 4, !tbaa !117
  %140 = lshr i32 %139, 11
  %141 = icmp eq i32 %140, 27
  %142 = zext i1 %141 to i32
  %143 = shl i32 %142, 7
  %144 = load i32, ptr %10, align 4, !tbaa !117
  %145 = or i32 %144, %143
  store i32 %145, ptr %10, align 4, !tbaa !117
  %146 = load ptr, ptr %4, align 8, !tbaa !256
  %147 = load i32, ptr %146, align 4, !tbaa !117
  %148 = icmp ugt i32 %147, 65535
  %149 = zext i1 %148 to i32
  %150 = shl i32 %149, 8
  %151 = load i32, ptr %10, align 4, !tbaa !117
  %152 = or i32 %151, %150
  store i32 %152, ptr %10, align 4, !tbaa !117
  %153 = getelementptr inbounds [4 x i8], ptr %9, i64 0, i64 1
  %154 = load i8, ptr %153, align 1, !tbaa !245
  %155 = zext i8 %154 to i32
  %156 = and i32 %155, 192
  %157 = ashr i32 %156, 2
  %158 = load i32, ptr %10, align 4, !tbaa !117
  %159 = or i32 %158, %157
  store i32 %159, ptr %10, align 4, !tbaa !117
  %160 = getelementptr inbounds [4 x i8], ptr %9, i64 0, i64 2
  %161 = load i8, ptr %160, align 1, !tbaa !245
  %162 = zext i8 %161 to i32
  %163 = and i32 %162, 192
  %164 = ashr i32 %163, 4
  %165 = load i32, ptr %10, align 4, !tbaa !117
  %166 = or i32 %165, %164
  store i32 %166, ptr %10, align 4, !tbaa !117
  %167 = getelementptr inbounds [4 x i8], ptr %9, i64 0, i64 3
  %168 = load i8, ptr %167, align 1, !tbaa !245
  %169 = zext i8 %168 to i32
  %170 = ashr i32 %169, 6
  %171 = load i32, ptr %10, align 4, !tbaa !117
  %172 = or i32 %171, %170
  store i32 %172, ptr %10, align 4, !tbaa !117
  %173 = load i32, ptr %10, align 4, !tbaa !117
  %174 = xor i32 %173, 42
  store i32 %174, ptr %10, align 4, !tbaa !117
  %175 = load i32, ptr %7, align 4, !tbaa !117
  %176 = sext i32 %175 to i64
  %177 = getelementptr inbounds [5 x i32], ptr @_ZZ18ImTextCharFromUtf8PjPKcS1_E6shifte, i64 0, i64 %176
  %178 = load i32, ptr %177, align 4, !tbaa !117
  %179 = load i32, ptr %10, align 4, !tbaa !117
  %180 = ashr i32 %179, %178
  store i32 %180, ptr %10, align 4, !tbaa !117
  %181 = load i32, ptr %10, align 4, !tbaa !117
  %182 = icmp ne i32 %181, 0
  br i1 %182, label %183, label %214

183:                                              ; preds = %84
  %184 = load i32, ptr %8, align 4, !tbaa !117
  %185 = getelementptr inbounds [4 x i8], ptr %9, i64 0, i64 0
  %186 = load i8, ptr %185, align 1, !tbaa !245
  %187 = icmp ne i8 %186, 0
  %188 = xor i1 %187, true
  %189 = xor i1 %188, true
  %190 = zext i1 %189 to i32
  %191 = getelementptr inbounds [4 x i8], ptr %9, i64 0, i64 1
  %192 = load i8, ptr %191, align 1, !tbaa !245
  %193 = icmp ne i8 %192, 0
  %194 = xor i1 %193, true
  %195 = xor i1 %194, true
  %196 = zext i1 %195 to i32
  %197 = add nsw i32 %190, %196
  %198 = getelementptr inbounds [4 x i8], ptr %9, i64 0, i64 2
  %199 = load i8, ptr %198, align 1, !tbaa !245
  %200 = icmp ne i8 %199, 0
  %201 = xor i1 %200, true
  %202 = xor i1 %201, true
  %203 = zext i1 %202 to i32
  %204 = add nsw i32 %197, %203
  %205 = getelementptr inbounds [4 x i8], ptr %9, i64 0, i64 3
  %206 = load i8, ptr %205, align 1, !tbaa !245
  %207 = icmp ne i8 %206, 0
  %208 = xor i1 %207, true
  %209 = xor i1 %208, true
  %210 = zext i1 %209 to i32
  %211 = add nsw i32 %204, %210
  %212 = call noundef i32 @_ZL5ImMinIiET_S0_S0_(i32 noundef %184, i32 noundef %211)
  store i32 %212, ptr %8, align 4, !tbaa !117
  %213 = load ptr, ptr %4, align 8, !tbaa !256
  store i32 65533, ptr %213, align 4, !tbaa !117
  br label %214

214:                                              ; preds = %183, %84
  %215 = load i32, ptr %8, align 4, !tbaa !117
  call void @llvm.lifetime.end.p0(i64 4, ptr %10) #16
  call void @llvm.lifetime.end.p0(i64 4, ptr %9) #16
  call void @llvm.lifetime.end.p0(i64 4, ptr %8) #16
  call void @llvm.lifetime.end.p0(i64 4, ptr %7) #16
  ret i32 %215
}