; Function Attrs: mustprogress nofree norecurse nosync nounwind willreturn memory(argmem: readwrite) uwtable
define dso_local noundef range(i32 -128, 129) i32 @_Z18ImTextCharFromUtf8PjPKcS1_(ptr noundef writeonly captures(none) initializes((0, 4)) %0, ptr noundef readonly captures(address) %1, ptr noundef readnone captures(address) %2) local_unnamed_addr #8 {
  %4 = load i8, ptr %1, align 1, !tbaa !206
  %5 = lshr i8 %4, 3
  %6 = zext nneg i8 %5 to i64
  %7 = getelementptr inbounds nuw [32 x i8], ptr @_ZZ18ImTextCharFromUtf8PjPKcS1_E7lengths, i64 0, i64 %6
  %8 = load i8, ptr %7, align 1, !tbaa !206
  %9 = sext i8 %8 to i32
  %10 = lshr i64 2164195328, %6
  %11 = trunc nuw i64 %10 to i32
  %12 = and i32 %11, 1
  %13 = add nsw i32 %12, %9
  %14 = icmp eq ptr %2, null
  %15 = sext i32 %13 to i64
  %16 = getelementptr inbounds i8, ptr %1, i64 %15
  %.0 = select i1 %14, ptr %16, ptr %2
  %17 = icmp ult ptr %1, %.0
  %spec.select = select i1 %17, i8 %4, i8 0
  %18 = getelementptr inbounds nuw i8, ptr %1, i64 1
  %19 = icmp ult ptr %18, %.0
  br i1 %19, label %20, label %22

20:                                               ; preds = %3
  %21 = load i8, ptr %18, align 1, !tbaa !206
  br label %22

22:                                               ; preds = %3, %20
  %23 = phi i8 [ %21, %20 ], [ 0, %3 ]
  %24 = getelementptr inbounds nuw i8, ptr %1, i64 2
  %25 = icmp ult ptr %24, %.0
  br i1 %25, label %26, label %28

26:                                               ; preds = %22
  %27 = load i8, ptr %24, align 1, !tbaa !206
  br label %28

28:                                               ; preds = %22, %26
  %29 = phi i8 [ %27, %26 ], [ 0, %22 ]
  %30 = getelementptr inbounds nuw i8, ptr %1, i64 3
  %31 = icmp ult ptr %30, %.0
  br i1 %31, label %32, label %34

32:                                               ; preds = %28
  %33 = load i8, ptr %30, align 1, !tbaa !206
  br label %34

34:                                               ; preds = %28, %32
  %35 = phi i8 [ %33, %32 ], [ 0, %28 ]
  %36 = zext i8 %spec.select to i32
  %37 = sext i8 %8 to i64
  %38 = getelementptr inbounds [5 x i32], ptr @_ZZ18ImTextCharFromUtf8PjPKcS1_E5masks, i64 0, i64 %37
  %39 = load i32, ptr %38, align 4, !tbaa !221
  %40 = and i32 %39, %36
  %41 = shl nuw nsw i32 %40, 18
  %42 = zext i8 %23 to i32
  %43 = shl nuw nsw i32 %42, 12
  %44 = and i32 %43, 258048
  %45 = or disjoint i32 %41, %44
  %46 = zext i8 %29 to i32
  %47 = shl nuw nsw i32 %46, 6
  %48 = and i32 %47, 4032
  %49 = or disjoint i32 %45, %48
  %50 = zext i8 %35 to i32
  %51 = and i32 %50, 63
  %52 = or disjoint i32 %49, %51
  %53 = getelementptr inbounds [5 x i32], ptr @_ZZ18ImTextCharFromUtf8PjPKcS1_E6shiftc, i64 0, i64 %37
  %54 = load i32, ptr %53, align 4, !tbaa !221
  %55 = lshr i32 %52, %54
  store i32 %55, ptr %0, align 4, !tbaa !221
  %56 = getelementptr inbounds [5 x i32], ptr @_ZZ18ImTextCharFromUtf8PjPKcS1_E4mins, i64 0, i64 %37
  %57 = load i32, ptr %56, align 4, !tbaa !221
  %58 = icmp ult i32 %55, %57
  %59 = select i1 %58, i32 64, i32 0
  %.mask = and i32 %55, 2147481600
  %60 = icmp eq i32 %.mask, 55296
  %61 = select i1 %60, i32 128, i32 0
  %62 = icmp samesign ugt i32 %55, 65535
  %63 = select i1 %62, i32 256, i32 0
  %64 = lshr i32 %42, 2
  %65 = and i32 %64, 48
  %66 = lshr i32 %46, 4
  %67 = and i32 %66, 12
  %68 = lshr i32 %50, 6
  %69 = or disjoint i32 %67, %65
  %70 = or disjoint i32 %69, %68
  %71 = or disjoint i32 %70, %59
  %72 = or disjoint i32 %71, %63
  %73 = or disjoint i32 %72, %61
  %74 = xor i32 %73, 42
  %75 = getelementptr inbounds [5 x i32], ptr @_ZZ18ImTextCharFromUtf8PjPKcS1_E6shifte, i64 0, i64 %37
  %76 = load i32, ptr %75, align 4, !tbaa !221
  %77 = lshr i32 %74, %76
  %.not = icmp eq i32 %77, 0
  br i1 %.not, label %91, label %78

78:                                               ; preds = %34
  %79 = icmp ne i8 %spec.select, 0
  %80 = zext i1 %79 to i32
  %81 = icmp ne i8 %23, 0
  %82 = zext i1 %81 to i32
  %83 = add nuw nsw i32 %82, %80
  %84 = icmp ne i8 %29, 0
  %85 = zext i1 %84 to i32
  %86 = add nuw nsw i32 %83, %85
  %87 = icmp ne i8 %35, 0
  %88 = zext i1 %87 to i32
  %89 = add nuw nsw i32 %86, %88
  %90 = tail call noundef i32 @llvm.smin.i32(i32 %13, i32 %89)
  store i32 65533, ptr %0, align 4, !tbaa !221
  br label %91

91:                                               ; preds = %78, %34
  %.047 = phi i32 [ %90, %78 ], [ %13, %34 ]
  ret i32 %.047
}